; Function Attrs: mustprogress uwtable
define hidden void @_ZN2dd11bdd_manager9init_markEv(ptr noundef nonnull align 8 dereferenceable(728) %this) local_unnamed_addr #3 align 2 {
entry:
  %m_mark = getelementptr inbounds i8, ptr %this, i64 640
  %m_nodes = getelementptr inbounds i8, ptr %this, i64 8
  %0 = load ptr, ptr %m_nodes, align 8
  %cmp.i = icmp eq ptr %0, null
  br i1 %cmp.i, label %_ZNK6vectorIN2dd11bdd_manager8bdd_nodeELb0EjE4sizeEv.exit.thread, label %_ZNK6vectorIN2dd11bdd_manager8bdd_nodeELb0EjE4sizeEv.exit

_ZNK6vectorIN2dd11bdd_manager8bdd_nodeELb0EjE4sizeEv.exit: ; preds = %entry
  %arrayidx.i = getelementptr inbounds i8, ptr %0, i64 -4
  %1 = load i32, ptr %arrayidx.i, align 4
  %2 = load ptr, ptr %m_mark, align 8
  %cmp.i.i = icmp eq ptr %2, null
  br i1 %cmp.i.i, label %_ZNK6vectorIjLb0EjE4sizeEv.exit.i, label %_ZNK6vectorIjLb0EjE4sizeEv.exit.thread.i

_ZNK6vectorIN2dd11bdd_manager8bdd_nodeELb0EjE4sizeEv.exit.thread: ; preds = %entry
  %3 = load ptr, ptr %m_mark, align 8
  %cmp.i.i4 = icmp eq ptr %3, null
  br i1 %cmp.i.i4, label %_ZN6vectorIjLb0EjE6resizeEj.exit, label %_ZNK6vectorIjLb0EjE4sizeEv.exit.thread.i.thread

_ZNK6vectorIjLb0EjE4sizeEv.exit.thread.i.thread:  ; preds = %_ZNK6vectorIN2dd11bdd_manager8bdd_nodeELb0EjE4sizeEv.exit.thread
  %arrayidx.i.i12 = getelementptr inbounds i8, ptr %3, i64 -4
  br label %if.then.i.i

_ZNK6vectorIjLb0EjE4sizeEv.exit.i:                ; preds = %_ZNK6vectorIN2dd11bdd_manager8bdd_nodeELb0EjE4sizeEv.exit
  %cmp.not.not.i = icmp eq i32 %1, 0
  br i1 %cmp.not.not.i, label %_ZN6vectorIjLb0EjE6resizeEj.exit, label %while.cond.i.preheader

_ZNK6vectorIjLb0EjE4sizeEv.exit.thread.i:         ; preds = %_ZNK6vectorIN2dd11bdd_manager8bdd_nodeELb0EjE4sizeEv.exit
  %arrayidx.i.i = getelementptr inbounds i8, ptr %2, i64 -4
  %4 = load i32, ptr %arrayidx.i.i, align 4
  %cmp.not15.i = icmp ult i32 %4, %1
  br i1 %cmp.not15.i, label %while.cond.i.preheader, label %if.then.i.i

while.cond.i.preheader:                           ; preds = %_ZNK6vectorIjLb0EjE4sizeEv.exit.i, %_ZNK6vectorIjLb0EjE4sizeEv.exit.thread.i
  %.ph = phi ptr [ %2, %_ZNK6vectorIjLb0EjE4sizeEv.exit.thread.i ], [ null, %_ZNK6vectorIjLb0EjE4sizeEv.exit.i ]
  %retval.0.i16.i.ph = phi i32 [ %4, %_ZNK6vectorIjLb0EjE4sizeEv.exit.thread.i ], [ 0, %_ZNK6vectorIjLb0EjE4sizeEv.exit.i ]
  br label %while.cond.i

if.then.i.i:                                      ; preds = %_ZNK6vectorIjLb0EjE4sizeEv.exit.thread.i.thread, %_ZNK6vectorIjLb0EjE4sizeEv.exit.thread.i
  %arrayidx.i.i15 = phi ptr [ %arrayidx.i.i12, %_ZNK6vectorIjLb0EjE4sizeEv.exit.thread.i.thread ], [ %arrayidx.i.i, %_ZNK6vectorIjLb0EjE4sizeEv.exit.thread.i ]
  %retval.0.i514 = phi i32 [ 0, %_ZNK6vectorIjLb0EjE4sizeEv.exit.thread.i.thread ], [ %1, %_ZNK6vectorIjLb0EjE4sizeEv.exit.thread.i ]
  store i32 %retval.0.i514, ptr %arrayidx.i.i15, align 4
  br label %_ZN6vectorIjLb0EjE6resizeEj.exit

while.cond.i:                                     ; preds = %while.cond.i.preheader, %while.body.i
  %5 = phi ptr [ %.pr.pre.i, %while.body.i ], [ %.ph, %while.cond.i.preheader ]
  %cmp.i10.i = icmp eq ptr %5, null
  br i1 %cmp.i10.i, label %_ZNK6vectorIjLb0EjE8capacityEv.exit.i, label %if.end.i11.i

if.end.i11.i:                                     ; preds = %while.cond.i
  %arrayidx.i12.i = getelementptr inbounds i8, ptr %5, i64 -8
  %6 = load i32, ptr %arrayidx.i12.i, align 4
  br label %_ZNK6vectorIjLb0EjE8capacityEv.exit.i

_ZNK6vectorIjLb0EjE8capacityEv.exit.i:            ; preds = %if.end.i11.i, %while.cond.i
  %retval.0.i13.i = phi i32 [ %6, %if.end.i11.i ], [ 0, %while.cond.i ]
  %cmp3.i = icmp ult i32 %retval.0.i13.i, %1
  br i1 %cmp3.i, label %while.body.i, label %while.end.i

while.body.i:                                     ; preds = %_ZNK6vectorIjLb0EjE8capacityEv.exit.i
  tail call void @_ZN6vectorIjLb0EjE13expand_vectorEv(ptr noundef nonnull align 8 dereferenceable(8) %m_mark)
  %.pr.pre.i = load ptr, ptr %m_mark, align 8
  br label %while.cond.i, !llvm.loop !4

while.end.i:                                      ; preds = %_ZNK6vectorIjLb0EjE8capacityEv.exit.i
  %arrayidx.i1 = getelementptr inbounds i8, ptr %5, i64 -4
  store i32 %1, ptr %arrayidx.i1, align 4
  %cmp8.not17.i = icmp eq i32 %retval.0.i16.i.ph, %1
  br i1 %cmp8.not17.i, label %_ZN6vectorIjLb0EjE6resizeEj.exit, label %for.body.preheader.i

for.body.preheader.i:                             ; preds = %while.end.i
  %idx.ext6.i = zext i32 %1 to i64
  %7 = load ptr, ptr %m_mark, align 8
  %idx.ext.i = zext i32 %retval.0.i16.i.ph to i64
  %add.ptr.i = getelementptr i32, ptr %7, i64 %idx.ext.i
  %8 = sub nsw i64 %idx.ext6.i, %idx.ext.i
  %9 = shl nsw i64 %8, 2
  tail call void @llvm.memset.p0.i64(ptr align 4 %add.ptr.i, i8 0, i64 %9, i1 false)
  br label %_ZN6vectorIjLb0EjE6resizeEj.exit

_ZN6vectorIjLb0EjE6resizeEj.exit:                 ; preds = %_ZNK6vectorIN2dd11bdd_manager8bdd_nodeELb0EjE4sizeEv.exit.thread, %_ZNK6vectorIjLb0EjE4sizeEv.exit.i, %if.then.i.i, %while.end.i, %for.body.preheader.i
  %m_mark_level = getelementptr inbounds i8, ptr %this, i64 648
  %10 = load i32, ptr %m_mark_level, align 8
  %inc = add i32 %10, 1
  store i32 %inc, ptr %m_mark_level, align 8
  %cmp = icmp eq i32 %inc, 0
  br i1 %cmp, label %if.then, label %if.end

if.then:                                          ; preds = %_ZN6vectorIjLb0EjE6resizeEj.exit
  %11 = load ptr, ptr %m_mark, align 8
  %cmp.i.i.i = icmp eq ptr %11, null
  br i1 %cmp.i.i.i, label %_ZN6vectorIjLb0EjE4fillERKj.exit, label %_ZN6vectorIjLb0EjE3endEv.exit.i

_ZN6vectorIjLb0EjE3endEv.exit.i:                  ; preds = %if.then
  %arrayidx.i.i.i = getelementptr inbounds i8, ptr %11, i64 -4
  %12 = load i32, ptr %arrayidx.i.i.i, align 4
  %cmp.not3.i = icmp eq i32 %12, 0
  br i1 %cmp.not3.i, label %_ZN6vectorIjLb0EjE4fillERKj.exit, label %for.body.i.preheader

for.body.i.preheader:                             ; preds = %_ZN6vectorIjLb0EjE3endEv.exit.i
  %13 = zext i32 %12 to i64
  %14 = shl nuw nsw i64 %13, 2
  tail call void @llvm.memset.p0.i64(ptr nonnull align 4 %11, i8 0, i64 %14, i1 false)
  %.pre = load i32, ptr %m_mark_level, align 8
  %15 = add i32 %.pre, 1
  br label %_ZN6vectorIjLb0EjE4fillERKj.exit

_ZN6vectorIjLb0EjE4fillERKj.exit:                 ; preds = %for.body.i.preheader, %if.then, %_ZN6vectorIjLb0EjE3endEv.exit.i
  %inc5 = phi i32 [ %15, %for.body.i.preheader ], [ 1, %if.then ], [ 1, %_ZN6vectorIjLb0EjE3endEv.exit.i ]
  store i32 %inc5, ptr %m_mark_level, align 8
  br label %if.end

if.end:                                           ; preds = %_ZN6vectorIjLb0EjE4fillERKj.exit, %_ZN6vectorIjLb0EjE6resizeEj.exit
  ret void
}